target datalayout = "e-m:e-p270:32:32-p271:32:32-p272:64:64-i64:64-i128:128-f80:128-n8:16:32:64-S128"
target triple = "x86_64-pc-linux-gnu"

%struct.mlib_affine_param = type { ptr, ptr, ptr, ptr, ptr, ptr, ptr, ptr, ptr, i32, i32, i32, i32, i32, i32, i32, ptr, i32 }

; Function Attrs: nounwind uwtable
define hidden i32 @mlib_ImageAffine_u8_3ch_nn(ptr noundef %0) #0 {
  %2 = alloca ptr, align 8
  %3 = alloca ptr, align 8
  %4 = alloca ptr, align 8
  %5 = alloca ptr, align 8
  %6 = alloca ptr, align 8
  %7 = alloca ptr, align 8
  %8 = alloca ptr, align 8
  %9 = alloca i32, align 4
  %10 = alloca i32, align 4
  %11 = alloca i32, align 4
  %12 = alloca i32, align 4
  %13 = alloca i32, align 4
  %14 = alloca i32, align 4
  %15 = alloca i32, align 4
  %16 = alloca i32, align 4
  %17 = alloca i32, align 4
  %18 = alloca i32, align 4
  %19 = alloca ptr, align 8
  %20 = alloca ptr, align 8
  %21 = alloca ptr, align 8
  %22 = alloca i32, align 4
  %23 = alloca i32, align 4
  %24 = alloca ptr, align 8
  %25 = alloca i8, align 1
  %26 = alloca i8, align 1
  %27 = alloca i8, align 1
  store ptr %0, ptr %2, align 8
  %28 = load ptr, ptr %2, align 8
  %29 = getelementptr inbounds %struct.mlib_affine_param, ptr %28, i32 0, i32 5
  %30 = load ptr, ptr %29, align 8
  store ptr %30, ptr %3, align 8
  %31 = load ptr, ptr %2, align 8
  %32 = getelementptr inbounds %struct.mlib_affine_param, ptr %31, i32 0, i32 6
  %33 = load ptr, ptr %32, align 8
  store ptr %33, ptr %4, align 8
  %34 = load ptr, ptr %2, align 8
  %35 = getelementptr inbounds %struct.mlib_affine_param, ptr %34, i32 0, i32 7
  %36 = load ptr, ptr %35, align 8
  store ptr %36, ptr %5, align 8
  %37 = load ptr, ptr %2, align 8
  %38 = getelementptr inbounds %struct.mlib_affine_param, ptr %37, i32 0, i32 8
  %39 = load ptr, ptr %38, align 8
  store ptr %39, ptr %6, align 8
  %40 = load ptr, ptr %2, align 8
  %41 = getelementptr inbounds %struct.mlib_affine_param, ptr %40, i32 0, i32 4
  %42 = load ptr, ptr %41, align 8
  store ptr %42, ptr %7, align 8
  %43 = load ptr, ptr %2, align 8
  %44 = getelementptr inbounds %struct.mlib_affine_param, ptr %43, i32 0, i32 3
  %45 = load ptr, ptr %44, align 8
  store ptr %45, ptr %8, align 8
  %46 = load ptr, ptr %2, align 8
  %47 = getelementptr inbounds %struct.mlib_affine_param, ptr %46, i32 0, i32 15
  %48 = load i32, ptr %47, align 8
  store i32 %48, ptr %9, align 4
  %49 = load ptr, ptr %2, align 8
  %50 = getelementptr inbounds %struct.mlib_affine_param, ptr %49, i32 0, i32 9
  %51 = load i32, ptr %50, align 8
  store i32 %51, ptr %14, align 4
  %52 = load ptr, ptr %2, align 8
  %53 = getelementptr inbounds %struct.mlib_affine_param, ptr %52, i32 0, i32 10
  %54 = load i32, ptr %53, align 4
  store i32 %54, ptr %15, align 4
  %55 = load ptr, ptr %2, align 8
  %56 = getelementptr inbounds %struct.mlib_affine_param, ptr %55, i32 0, i32 11
  %57 = load i32, ptr %56, align 8
  store i32 %57, ptr %16, align 4
  %58 = load ptr, ptr %2, align 8
  %59 = getelementptr inbounds %struct.mlib_affine_param, ptr %58, i32 0, i32 12
  %60 = load i32, ptr %59, align 4
  store i32 %60, ptr %17, align 4
  %61 = load ptr, ptr %2, align 8
  %62 = getelementptr inbounds %struct.mlib_affine_param, ptr %61, i32 0, i32 16
  %63 = load ptr, ptr %62, align 8
  store ptr %63, ptr %19, align 8
  %64 = load i32, ptr %14, align 4
  store i32 %64, ptr %18, align 4
  br label %65

65:                                               ; preds = %222, %1
  %66 = load i32, ptr %18, align 4
  %67 = load i32, ptr %15, align 4
  %68 = icmp sle i32 %66, %67
  br i1 %68, label %69, label %225

69:                                               ; preds = %65
  %70 = load i32, ptr %9, align 4
  %71 = load ptr, ptr %7, align 8
  %72 = sext i32 %70 to i64
  %73 = getelementptr inbounds i8, ptr %71, i64 %72
  store ptr %73, ptr %7, align 8
  %74 = load ptr, ptr %3, align 8
  %75 = load i32, ptr %18, align 4
  %76 = sext i32 %75 to i64
  %77 = getelementptr inbounds i32, ptr %74, i64 %76
  %78 = load i32, ptr %77, align 4
  store i32 %78, ptr %10, align 4
  %79 = load ptr, ptr %4, align 8
  %80 = load i32, ptr %18, align 4
  %81 = sext i32 %80 to i64
  %82 = getelementptr inbounds i32, ptr %79, i64 %81
  %83 = load i32, ptr %82, align 4
  store i32 %83, ptr %11, align 4
  %84 = load ptr, ptr %5, align 8
  %85 = load i32, ptr %18, align 4
  %86 = sext i32 %85 to i64
  %87 = getelementptr inbounds i32, ptr %84, i64 %86
  %88 = load i32, ptr %87, align 4
  store i32 %88, ptr %12, align 4
  %89 = load ptr, ptr %6, align 8
  %90 = load i32, ptr %18, align 4
  %91 = sext i32 %90 to i64
  %92 = getelementptr inbounds i32, ptr %89, i64 %91
  %93 = load i32, ptr %92, align 4
  store i32 %93, ptr %13, align 4
  %94 = load ptr, ptr %19, align 8
  %95 = icmp ne ptr %94, null
  br i1 %95, label %96, label %110

96:                                               ; preds = %69
  %97 = load ptr, ptr %19, align 8
  %98 = load i32, ptr %18, align 4
  %99 = mul nsw i32 2, %98
  %100 = sext i32 %99 to i64
  %101 = getelementptr inbounds i32, ptr %97, i64 %100
  %102 = load i32, ptr %101, align 4
  store i32 %102, ptr %16, align 4
  %103 = load ptr, ptr %19, align 8
  %104 = load i32, ptr %18, align 4
  %105 = mul nsw i32 2, %104
  %106 = add nsw i32 %105, 1
  %107 = sext i32 %106 to i64
  %108 = getelementptr inbounds i32, ptr %103, i64 %107
  %109 = load i32, ptr %108, align 4
  store i32 %109, ptr %17, align 4
  br label %110

110:                                              ; preds = %96, %69
  %111 = load i32, ptr %10, align 4
  %112 = load i32, ptr %11, align 4
  %113 = icmp sgt i32 %111, %112
  br i1 %113, label %114, label %115

114:                                              ; preds = %110
  br label %222

115:                                              ; preds = %110
  %116 = load ptr, ptr %7, align 8
  %117 = load i32, ptr %10, align 4
  %118 = mul nsw i32 3, %117
  %119 = sext i32 %118 to i64
  %120 = getelementptr inbounds i8, ptr %116, i64 %119
  store ptr %120, ptr %20, align 8
  %121 = load ptr, ptr %7, align 8
  %122 = load i32, ptr %11, align 4
  %123 = mul nsw i32 3, %122
  %124 = sext i32 %123 to i64
  %125 = getelementptr inbounds i8, ptr %121, i64 %124
  store ptr %125, ptr %24, align 8
  %126 = load i32, ptr %13, align 4
  %127 = ashr i32 %126, 13
  %128 = and i32 %127, -8
  store i32 %128, ptr %23, align 4
  %129 = load i32, ptr %17, align 4
  %130 = load i32, ptr %13, align 4
  %131 = add nsw i32 %130, %129
  store i32 %131, ptr %13, align 4
  %132 = load i32, ptr %12, align 4
  %133 = ashr i32 %132, 16
  store i32 %133, ptr %22, align 4
  %134 = load i32, ptr %16, align 4
  %135 = load i32, ptr %12, align 4
  %136 = add nsw i32 %135, %134
  store i32 %136, ptr %12, align 4
  %137 = load ptr, ptr %8, align 8
  %138 = load i32, ptr %23, align 4
  %139 = sext i32 %138 to i64
  %140 = getelementptr inbounds i8, ptr %137, i64 %139
  %141 = load ptr, ptr %140, align 8
  %142 = load i32, ptr %22, align 4
  %143 = mul nsw i32 3, %142
  %144 = sext i32 %143 to i64
  %145 = getelementptr inbounds i8, ptr %141, i64 %144
  store ptr %145, ptr %21, align 8
  %146 = load ptr, ptr %21, align 8
  %147 = getelementptr inbounds i8, ptr %146, i64 0
  %148 = load i8, ptr %147, align 1
  store i8 %148, ptr %25, align 1
  %149 = load ptr, ptr %21, align 8
  %150 = getelementptr inbounds i8, ptr %149, i64 1
  %151 = load i8, ptr %150, align 1
  store i8 %151, ptr %26, align 1
  %152 = load ptr, ptr %21, align 8
  %153 = getelementptr inbounds i8, ptr %152, i64 2
  %154 = load i8, ptr %153, align 1
  store i8 %154, ptr %27, align 1
  %155 = load i32, ptr %13, align 4
  %156 = ashr i32 %155, 13
  %157 = and i32 %156, -8
  store i32 %157, ptr %23, align 4
  %158 = load i32, ptr %17, align 4
  %159 = load i32, ptr %13, align 4
  %160 = add nsw i32 %159, %158
  store i32 %160, ptr %13, align 4
  %161 = load i32, ptr %12, align 4
  %162 = ashr i32 %161, 16
  store i32 %162, ptr %22, align 4
  %163 = load i32, ptr %16, align 4
  %164 = load i32, ptr %12, align 4
  %165 = add nsw i32 %164, %163
  store i32 %165, ptr %12, align 4
  br label %166

166:                                              ; preds = %209, %115
  %167 = load ptr, ptr %20, align 8
  %168 = load ptr, ptr %24, align 8
  %169 = icmp ult ptr %167, %168
  br i1 %169, label %170, label %212

170:                                              ; preds = %166
  %171 = load ptr, ptr %8, align 8
  %172 = load i32, ptr %23, align 4
  %173 = sext i32 %172 to i64
  %174 = getelementptr inbounds i8, ptr %171, i64 %173
  %175 = load ptr, ptr %174, align 8
  %176 = load i32, ptr %22, align 4
  %177 = mul nsw i32 3, %176
  %178 = sext i32 %177 to i64
  %179 = getelementptr inbounds i8, ptr %175, i64 %178
  store ptr %179, ptr %21, align 8
  %180 = load i32, ptr %13, align 4
  %181 = ashr i32 %180, 13
  %182 = and i32 %181, -8
  store i32 %182, ptr %23, align 4
  %183 = load i32, ptr %17, align 4
  %184 = load i32, ptr %13, align 4
  %185 = add nsw i32 %184, %183
  store i32 %185, ptr %13, align 4
  %186 = load i32, ptr %12, align 4
  %187 = ashr i32 %186, 16
  store i32 %187, ptr %22, align 4
  %188 = load i32, ptr %16, align 4
  %189 = load i32, ptr %12, align 4
  %190 = add nsw i32 %189, %188
  store i32 %190, ptr %12, align 4
  %191 = load i8, ptr %25, align 1
  %192 = load ptr, ptr %20, align 8
  %193 = getelementptr inbounds i8, ptr %192, i64 0
  store i8 %191, ptr %193, align 1
  %194 = load i8, ptr %26, align 1
  %195 = load ptr, ptr %20, align 8
  %196 = getelementptr inbounds i8, ptr %195, i64 1
  store i8 %194, ptr %196, align 1
  %197 = load i8, ptr %27, align 1
  %198 = load ptr, ptr %20, align 8
  %199 = getelementptr inbounds i8, ptr %198, i64 2
  store i8 %197, ptr %199, align 1
  %200 = load ptr, ptr %21, align 8
  %201 = getelementptr inbounds i8, ptr %200, i64 0
  %202 = load i8, ptr %201, align 1
  store i8 %202, ptr %25, align 1
  %203 = load ptr, ptr %21, align 8
  %204 = getelementptr inbounds i8, ptr %203, i64 1
  %205 = load i8, ptr %204, align 1
  store i8 %205, ptr %26, align 1
  %206 = load ptr, ptr %21, align 8
  %207 = getelementptr inbounds i8, ptr %206, i64 2
  %208 = load i8, ptr %207, align 1
  store i8 %208, ptr %27, align 1
  br label %209

209:                                              ; preds = %170
  %210 = load ptr, ptr %20, align 8
  %211 = getelementptr inbounds i8, ptr %210, i64 3
  store ptr %211, ptr %20, align 8
  br label %166, !llvm.loop !11

212:                                              ; preds = %166
  %213 = load i8, ptr %25, align 1
  %214 = load ptr, ptr %20, align 8
  %215 = getelementptr inbounds i8, ptr %214, i64 0
  store i8 %213, ptr %215, align 1
  %216 = load i8, ptr %26, align 1
  %217 = load ptr, ptr %20, align 8
  %218 = getelementptr inbounds i8, ptr %217, i64 1
  store i8 %216, ptr %218, align 1
  %219 = load i8, ptr %27, align 1
  %220 = load ptr, ptr %20, align 8
  %221 = getelementptr inbounds i8, ptr %220, i64 2
  store i8 %219, ptr %221, align 1
  br label %222

222:                                              ; preds = %212, %114
  %223 = load i32, ptr %18, align 4
  %224 = add nsw i32 %223, 1
  store i32 %224, ptr %18, align 4
  br label %65, !llvm.loop !12

225:                                              ; preds = %65
  ret i32 0
}