; Function Attrs: nofree norecurse nosync nounwind memory(readwrite, inaccessiblemem: none) uwtable
define hidden noundef i32 @mlib_ImageAffine_u8_3ch_nn(ptr nocapture noundef readonly %0) local_unnamed_addr #0 {
  %2 = getelementptr inbounds i8, ptr %0, i64 40
  %3 = load ptr, ptr %2, align 8
  %4 = getelementptr inbounds i8, ptr %0, i64 48
  %5 = load ptr, ptr %4, align 8
  %6 = getelementptr inbounds i8, ptr %0, i64 56
  %7 = load ptr, ptr %6, align 8
  %8 = getelementptr inbounds i8, ptr %0, i64 64
  %9 = load ptr, ptr %8, align 8
  %10 = getelementptr inbounds i8, ptr %0, i64 24
  %11 = load ptr, ptr %10, align 8
  %12 = getelementptr inbounds i8, ptr %0, i64 72
  %13 = load i32, ptr %12, align 8
  %14 = getelementptr inbounds i8, ptr %0, i64 76
  %15 = load i32, ptr %14, align 4
  %16 = getelementptr inbounds i8, ptr %0, i64 104
  %17 = load ptr, ptr %16, align 8
  %.not116 = icmp sgt i32 %13, %15
  br i1 %.not116, label %._crit_edge123, label %.lr.ph122

.lr.ph122:                                        ; preds = %1
  %18 = getelementptr inbounds i8, ptr %0, i64 84
  %19 = load i32, ptr %18, align 4
  %20 = getelementptr inbounds i8, ptr %0, i64 80
  %21 = load i32, ptr %20, align 8
  %22 = getelementptr inbounds i8, ptr %0, i64 96
  %23 = load i32, ptr %22, align 8
  %24 = getelementptr inbounds i8, ptr %0, i64 32
  %25 = load ptr, ptr %24, align 8
  %26 = sext i32 %23 to i64
  %.not96 = icmp eq ptr %17, null
  %27 = sext i32 %13 to i64
  %28 = add i32 %15, 1
  br label %29

29:                                               ; preds = %.lr.ph122, %77
  %indvars.iv = phi i64 [ %27, %.lr.ph122 ], [ %indvars.iv.next, %77 ]
  %.083120 = phi ptr [ %25, %.lr.ph122 ], [ %30, %77 ]
  %.089118 = phi i32 [ %19, %.lr.ph122 ], [ %.1, %77 ]
  %.090117 = phi i32 [ %21, %.lr.ph122 ], [ %.191, %77 ]
  %30 = getelementptr inbounds i8, ptr %.083120, i64 %26
  %31 = getelementptr inbounds i32, ptr %3, i64 %indvars.iv
  %32 = load i32, ptr %31, align 4
  %33 = getelementptr inbounds i32, ptr %5, i64 %indvars.iv
  %34 = load i32, ptr %33, align 4
  %35 = getelementptr inbounds i32, ptr %7, i64 %indvars.iv
  %36 = load i32, ptr %35, align 4
  %37 = getelementptr inbounds i32, ptr %9, i64 %indvars.iv
  %38 = load i32, ptr %37, align 4
  br i1 %.not96, label %46, label %39

39:                                               ; preds = %29
  %40 = shl nsw i64 %indvars.iv, 1
  %41 = getelementptr inbounds i32, ptr %17, i64 %40
  %42 = load i32, ptr %41, align 4
  %43 = or disjoint i64 %40, 1
  %44 = getelementptr inbounds i32, ptr %17, i64 %43
  %45 = load i32, ptr %44, align 4
  br label %46

46:                                               ; preds = %39, %29
  %.191 = phi i32 [ %42, %39 ], [ %.090117, %29 ]
  %.1 = phi i32 [ %45, %39 ], [ %.089118, %29 ]
  %47 = icmp sgt i32 %32, %34
  br i1 %47, label %77, label %48

48:                                               ; preds = %46
  %49 = mul nsw i32 %32, 3
  %50 = sext i32 %49 to i64
  %51 = getelementptr inbounds i8, ptr %30, i64 %50
  %52 = mul nsw i32 %34, 3
  %53 = sext i32 %52 to i64
  %54 = getelementptr inbounds i8, ptr %30, i64 %53
  %55 = ashr i32 %38, 13
  %56 = and i32 %55, -8
  %57 = ashr i32 %36, 16
  %58 = sext i32 %56 to i64
  %59 = getelementptr inbounds i8, ptr %11, i64 %58
  %60 = load ptr, ptr %59, align 8
  %61 = mul nsw i32 %57, 3
  %62 = sext i32 %61 to i64
  %63 = getelementptr inbounds i8, ptr %60, i64 %62
  %.0.in102 = getelementptr inbounds i8, ptr %63, i64 2
  %.0103 = load i8, ptr %.0.in102, align 1
  %.081.in104 = getelementptr inbounds i8, ptr %63, i64 1
  %.081105 = load i8, ptr %.081.in104, align 1
  %.082106 = load i8, ptr %63, align 1
  %64 = icmp slt i32 %49, %52
  br i1 %64, label %.lr.ph, label %._crit_edge

.lr.ph:                                           ; preds = %48, %.lr.ph
  %.082112 = phi i8 [ %.082, %.lr.ph ], [ %.082106, %48 ]
  %.081111 = phi i8 [ %.081, %.lr.ph ], [ %.081105, %48 ]
  %.0110 = phi i8 [ %.0, %.lr.ph ], [ %.0103, %48 ]
  %.086109 = phi ptr [ %73, %.lr.ph ], [ %51, %48 ]
  %.pn98108 = phi i32 [ %.pn97, %.lr.ph ], [ %36, %48 ]
  %.pn99107 = phi i32 [ %.pn, %.lr.ph ], [ %38, %48 ]
  %.pn = add nsw i32 %.pn99107, %.1
  %.084.in = ashr i32 %.pn, 13
  %.084 = and i32 %.084.in, -8
  %.pn97 = add nsw i32 %.pn98108, %.191
  %.085 = ashr i32 %.pn97, 16
  %65 = sext i32 %.084 to i64
  %66 = getelementptr inbounds i8, ptr %11, i64 %65
  %67 = load ptr, ptr %66, align 8
  %68 = mul nsw i32 %.085, 3
  %69 = sext i32 %68 to i64
  %70 = getelementptr inbounds i8, ptr %67, i64 %69
  store i8 %.082112, ptr %.086109, align 1
  %71 = getelementptr inbounds i8, ptr %.086109, i64 1
  store i8 %.081111, ptr %71, align 1
  %72 = getelementptr inbounds i8, ptr %.086109, i64 2
  store i8 %.0110, ptr %72, align 1
  %73 = getelementptr inbounds i8, ptr %.086109, i64 3
  %.0.in = getelementptr inbounds i8, ptr %70, i64 2
  %.0 = load i8, ptr %.0.in, align 1
  %.081.in = getelementptr inbounds i8, ptr %70, i64 1
  %.081 = load i8, ptr %.081.in, align 1
  %.082 = load i8, ptr %70, align 1
  %74 = icmp ult ptr %73, %54
  br i1 %74, label %.lr.ph, label %._crit_edge, !llvm.loop !11

._crit_edge:                                      ; preds = %.lr.ph, %48
  %.086.lcssa = phi ptr [ %51, %48 ], [ %73, %.lr.ph ]
  %.0.lcssa = phi i8 [ %.0103, %48 ], [ %.0, %.lr.ph ]
  %.081.lcssa = phi i8 [ %.081105, %48 ], [ %.081, %.lr.ph ]
  %.082.lcssa = phi i8 [ %.082106, %48 ], [ %.082, %.lr.ph ]
  store i8 %.082.lcssa, ptr %.086.lcssa, align 1
  %75 = getelementptr inbounds i8, ptr %.086.lcssa, i64 1
  store i8 %.081.lcssa, ptr %75, align 1
  %76 = getelementptr inbounds i8, ptr %.086.lcssa, i64 2
  store i8 %.0.lcssa, ptr %76, align 1
  br label %77

77:                                               ; preds = %46, %._crit_edge
  %indvars.iv.next = add nsw i64 %indvars.iv, 1
  %lftr.wideiv = trunc i64 %indvars.iv.next to i32
  %exitcond.not = icmp eq i32 %28, %lftr.wideiv
  br i1 %exitcond.not, label %._crit_edge123, label %29, !llvm.loop !12

._crit_edge123:                                   ; preds = %77, %1
  ret i32 0
}